target datalayout = "e-m:e-p270:32:32-p271:32:32-p272:64:64-i64:64-i128:128-f80:128-n8:16:32:64-S128"
target triple = "x86_64-pc-linux-gnu"

%struct.DdManager = type { %struct.DdNode, ptr, ptr, ptr, ptr, ptr, ptr, ptr, i32, i32, double, double, double, i32, i32, i32, i32, i32, i32, ptr, ptr, %struct.DdSubtable, i32, i32, i32, i32, i32, i32, i32, double, i32, i32, i32, ptr, i64, double, i32, ptr, ptr, ptr, ptr, ptr, ptr, ptr, i32, ptr, ptr, ptr, ptr, ptr, ptr, i32, i32, i32, double, i32, i32, i32, i32, double, double, i32, i32, i32, i32, i32, i32, i32, i32, i32, ptr, ptr, i32, i32, i32, i32, i32, i32, ptr, ptr, ptr, ptr, ptr, ptr, ptr, ptr, i32, i64, i64, i64, i32, i64, i64, double, double, double, double, double, double, i32, ptr, ptr, i64 }
%struct.DdNode = type { i32, i32, ptr, %union.anon, i64 }
%union.anon = type { %struct.DdChildren }
%struct.DdChildren = type { ptr, ptr }
%struct.DdSubtable = type { ptr, i32, i32, i32, i32, i32, i32, i32, i32, i32, i32, i32 }

; Function Attrs: nounwind uwtable
define internal ptr @extraTransferPermuteTime(ptr noundef %0, ptr noundef %1, ptr noundef %2, ptr noundef %3, i32 noundef %4) #0 {
  %6 = alloca ptr, align 8
  %7 = alloca ptr, align 8
  %8 = alloca ptr, align 8
  %9 = alloca ptr, align 8
  %10 = alloca ptr, align 8
  %11 = alloca i32, align 4
  %12 = alloca ptr, align 8
  %13 = alloca ptr, align 8
  %14 = alloca ptr, align 8
  %15 = alloca ptr, align 8
  %16 = alloca ptr, align 8
  %17 = alloca i32, align 4
  store ptr %0, ptr %7, align 8, !tbaa !3
  store ptr %1, ptr %8, align 8, !tbaa !3
  store ptr %2, ptr %9, align 8, !tbaa !8
  store ptr %3, ptr %10, align 8, !tbaa !30
  store i32 %4, ptr %11, align 4, !tbaa !10
  call void @llvm.lifetime.start.p0(i64 8, ptr %12) #5
  call void @llvm.lifetime.start.p0(i64 8, ptr %13) #5
  store ptr null, ptr %13, align 8, !tbaa !39
  call void @llvm.lifetime.start.p0(i64 8, ptr %14) #5
  store ptr null, ptr %14, align 8, !tbaa !41
  call void @llvm.lifetime.start.p0(i64 8, ptr %15) #5
  call void @llvm.lifetime.start.p0(i64 8, ptr %16) #5
  %18 = call ptr @st__init_table(ptr noundef @st__ptrcmp, ptr noundef @st__ptrhash)
  store ptr %18, ptr %13, align 8, !tbaa !39
  %19 = load ptr, ptr %13, align 8, !tbaa !39
  %20 = icmp eq ptr %19, null
  br i1 %20, label %21, label %22

21:                                               ; preds = %5
  br label %69

22:                                               ; preds = %5
  %23 = load ptr, ptr %7, align 8, !tbaa !3
  %24 = load ptr, ptr %8, align 8, !tbaa !3
  %25 = load ptr, ptr %9, align 8, !tbaa !8
  %26 = load ptr, ptr %13, align 8, !tbaa !39
  %27 = load ptr, ptr %10, align 8, !tbaa !30
  %28 = load i32, ptr %11, align 4, !tbaa !10
  %29 = call ptr @extraTransferPermuteRecurTime(ptr noundef %23, ptr noundef %24, ptr noundef %25, ptr noundef %26, ptr noundef %27, i32 noundef %28)
  store ptr %29, ptr %12, align 8, !tbaa !8
  %30 = load ptr, ptr %12, align 8, !tbaa !8
  %31 = icmp ne ptr %30, null
  br i1 %31, label %32, label %40

32:                                               ; preds = %22
  %33 = load ptr, ptr %12, align 8, !tbaa !8
  %34 = ptrtoint ptr %33 to i64
  %35 = and i64 %34, -2
  %36 = inttoptr i64 %35 to ptr
  %37 = getelementptr inbounds nuw %struct.DdNode, ptr %36, i32 0, i32 1
  %38 = load i32, ptr %37, align 4, !tbaa !32
  %39 = add i32 %38, 1
  store i32 %39, ptr %37, align 4, !tbaa !32
  br label %40

40:                                               ; preds = %32, %22
  %41 = load ptr, ptr %13, align 8, !tbaa !39
  %42 = call ptr @st__init_gen(ptr noundef %41)
  store ptr %42, ptr %14, align 8, !tbaa !41
  %43 = load ptr, ptr %14, align 8, !tbaa !41
  %44 = icmp eq ptr %43, null
  br i1 %44, label %45, label %46

45:                                               ; preds = %40
  br label %69

46:                                               ; preds = %40
  br label %47

47:                                               ; preds = %51, %46
  %48 = load ptr, ptr %14, align 8, !tbaa !41
  %49 = call i32 @st__gen(ptr noundef %48, ptr noundef %15, ptr noundef %16)
  %50 = icmp ne i32 %49, 0
  br i1 %50, label %51, label %54

51:                                               ; preds = %47
  %52 = load ptr, ptr %8, align 8, !tbaa !3
  %53 = load ptr, ptr %16, align 8, !tbaa !8
  call void @Cudd_RecursiveDeref(ptr noundef %52, ptr noundef %53)
  br label %47, !llvm.loop !43

54:                                               ; preds = %47
  %55 = load ptr, ptr %14, align 8, !tbaa !41
  call void @st__free_gen(ptr noundef %55)
  store ptr null, ptr %14, align 8, !tbaa !41
  %56 = load ptr, ptr %13, align 8, !tbaa !39
  call void @st__free_table(ptr noundef %56)
  store ptr null, ptr %13, align 8, !tbaa !39
  %57 = load ptr, ptr %12, align 8, !tbaa !8
  %58 = icmp ne ptr %57, null
  br i1 %58, label %59, label %67

59:                                               ; preds = %54
  %60 = load ptr, ptr %12, align 8, !tbaa !8
  %61 = ptrtoint ptr %60 to i64
  %62 = and i64 %61, -2
  %63 = inttoptr i64 %62 to ptr
  %64 = getelementptr inbounds nuw %struct.DdNode, ptr %63, i32 0, i32 1
  %65 = load i32, ptr %64, align 4, !tbaa !32
  %66 = add i32 %65, -1
  store i32 %66, ptr %64, align 4, !tbaa !32
  br label %67

67:                                               ; preds = %59, %54
  %68 = load ptr, ptr %12, align 8, !tbaa !8
  store ptr %68, ptr %6, align 8
  store i32 1, ptr %17, align 4
  br label %80

69:                                               ; preds = %45, %21
  %70 = load ptr, ptr %13, align 8, !tbaa !39
  %71 = icmp ne ptr %70, null
  br i1 %71, label %72, label %74

72:                                               ; preds = %69
  %73 = load ptr, ptr %13, align 8, !tbaa !39
  call void @st__free_table(ptr noundef %73)
  br label %74

74:                                               ; preds = %72, %69
  %75 = load ptr, ptr %14, align 8, !tbaa !41
  %76 = icmp ne ptr %75, null
  br i1 %76, label %77, label %79

77:                                               ; preds = %74
  %78 = load ptr, ptr %14, align 8, !tbaa !41
  call void @st__free_gen(ptr noundef %78)
  br label %79

79:                                               ; preds = %77, %74
  store ptr null, ptr %6, align 8
  store i32 1, ptr %17, align 4
  br label %80

80:                                               ; preds = %79, %67
  call void @llvm.lifetime.end.p0(i64 8, ptr %16) #5
  call void @llvm.lifetime.end.p0(i64 8, ptr %15) #5
  call void @llvm.lifetime.end.p0(i64 8, ptr %14) #5
  call void @llvm.lifetime.end.p0(i64 8, ptr %13) #5
  call void @llvm.lifetime.end.p0(i64 8, ptr %12) #5
  %81 = load ptr, ptr %6, align 8
  ret ptr %81
}

; Function Attrs: nounwind uwtable
define ptr @Extra_TransferPermuteTime(ptr noundef %0, ptr noundef %1, ptr noundef %2, ptr noundef %3, i32 noundef %4) #0 {
  %6 = alloca ptr, align 8
  %7 = alloca ptr, align 8
  %8 = alloca ptr, align 8
  %9 = alloca ptr, align 8
  %10 = alloca i32, align 4
  %11 = alloca ptr, align 8
  store ptr %0, ptr %6, align 8, !tbaa !3
  store ptr %1, ptr %7, align 8, !tbaa !3
  store ptr %2, ptr %8, align 8, !tbaa !8
  store ptr %3, ptr %9, align 8, !tbaa !30
  store i32 %4, ptr %10, align 4, !tbaa !10
  call void @llvm.lifetime.start.p0(i64 8, ptr %11) #5
  br label %12

12:                                               ; preds = %21, %5
  %13 = load ptr, ptr %7, align 8, !tbaa !3
  %14 = getelementptr inbounds nuw %struct.DdManager, ptr %13, i32 0, i32 55
  store i32 0, ptr %14, align 8, !tbaa !12
  %15 = load ptr, ptr %6, align 8, !tbaa !3
  %16 = load ptr, ptr %7, align 8, !tbaa !3
  %17 = load ptr, ptr %8, align 8, !tbaa !8
  %18 = load ptr, ptr %9, align 8, !tbaa !30
  %19 = load i32, ptr %10, align 4, !tbaa !10
  %20 = call ptr @extraTransferPermuteTime(ptr noundef %15, ptr noundef %16, ptr noundef %17, ptr noundef %18, i32 noundef %19)
  store ptr %20, ptr %11, align 8, !tbaa !8
  br label %21

21:                                               ; preds = %12
  %22 = load ptr, ptr %7, align 8, !tbaa !3
  %23 = getelementptr inbounds nuw %struct.DdManager, ptr %22, i32 0, i32 55
  %24 = load i32, ptr %23, align 8, !tbaa !12
  %25 = icmp eq i32 %24, 1
  br i1 %25, label %12, label %26, !llvm.loop !38

26:                                               ; preds = %21
  %27 = load ptr, ptr %11, align 8, !tbaa !8
  call void @llvm.lifetime.end.p0(i64 8, ptr %11) #5
  ret ptr %27
}