; Function Attrs: nounwind uwtable
define ptr @Extra_TransferPermuteTime(ptr noundef readnone captures(none) %0, ptr noundef initializes((448, 452)) %1, ptr noundef %2, ptr noundef %3, i32 noundef %4) local_unnamed_addr #0 {
  %6 = alloca ptr, align 8
  %7 = alloca ptr, align 8
  %8 = getelementptr inbounds nuw i8, ptr %1, i64 448
  br label %9

9:                                                ; preds = %extraTransferPermuteTime.exit, %5
  store i32 0, ptr %8, align 8, !tbaa !3
  call void @llvm.lifetime.start.p0(i64 8, ptr nonnull %6) #6
  call void @llvm.lifetime.start.p0(i64 8, ptr nonnull %7) #6
  %10 = call ptr @st__init_table(ptr noundef nonnull @st__ptrcmp, ptr noundef nonnull @st__ptrhash) #6
  %cond.i = icmp eq ptr %10, null
  br i1 %cond.i, label %extraTransferPermuteTime.exit, label %11

11:                                               ; preds = %9
  %12 = call fastcc ptr @extraTransferPermuteRecurTime(ptr noundef nonnull %1, ptr noundef %2, ptr noundef %10, ptr noundef %3, i32 noundef %4)
  %.not.i = icmp eq ptr %12, null
  br i1 %.not.i, label %20, label %13

13:                                               ; preds = %11
  %14 = ptrtoint ptr %12 to i64
  %15 = and i64 %14, -2
  %16 = inttoptr i64 %15 to ptr
  %17 = getelementptr inbounds nuw i8, ptr %16, i64 4
  %18 = load i32, ptr %17, align 4, !tbaa !27
  %19 = add i32 %18, 1
  store i32 %19, ptr %17, align 4, !tbaa !27
  br label %20

20:                                               ; preds = %13, %11
  %21 = call ptr @st__init_gen(ptr noundef nonnull %10) #6
  %22 = icmp eq ptr %21, null
  br i1 %22, label %33, label %.preheader.i

.preheader.i:                                     ; preds = %20
  %23 = call i32 @st__gen(ptr noundef nonnull %21, ptr noundef nonnull %6, ptr noundef nonnull %7) #6
  %.not271.i = icmp eq i32 %23, 0
  br i1 %.not271.i, label %._crit_edge.i, label %.lr.ph.i

.lr.ph.i:                                         ; preds = %.preheader.i, %.lr.ph.i
  %24 = load ptr, ptr %7, align 8, !tbaa !37
  call void @Cudd_RecursiveDeref(ptr noundef nonnull %1, ptr noundef %24) #6
  %25 = call i32 @st__gen(ptr noundef nonnull %21, ptr noundef nonnull %6, ptr noundef nonnull %7) #6
  %.not27.i = icmp eq i32 %25, 0
  br i1 %.not27.i, label %._crit_edge.i, label %.lr.ph.i, !llvm.loop !38

._crit_edge.i:                                    ; preds = %.lr.ph.i, %.preheader.i
  call void @st__free_gen(ptr noundef nonnull %21) #6
  call void @st__free_table(ptr noundef nonnull %10) #6
  br i1 %.not.i, label %extraTransferPermuteTime.exit, label %26

26:                                               ; preds = %._crit_edge.i
  %27 = ptrtoint ptr %12 to i64
  %28 = and i64 %27, -2
  %29 = inttoptr i64 %28 to ptr
  %30 = getelementptr inbounds nuw i8, ptr %29, i64 4
  %31 = load i32, ptr %30, align 4, !tbaa !27
  %32 = add i32 %31, -1
  store i32 %32, ptr %30, align 4, !tbaa !27
  br label %extraTransferPermuteTime.exit

33:                                               ; preds = %20
  call void @st__free_table(ptr noundef nonnull %10) #6
  br label %extraTransferPermuteTime.exit

extraTransferPermuteTime.exit:                    ; preds = %9, %._crit_edge.i, %26, %33
  %.022.i = phi ptr [ %12, %26 ], [ null, %._crit_edge.i ], [ null, %33 ], [ null, %9 ]
  call void @llvm.lifetime.end.p0(i64 8, ptr nonnull %7) #6
  call void @llvm.lifetime.end.p0(i64 8, ptr nonnull %6) #6
  %34 = load i32, ptr %8, align 8, !tbaa !3
  %35 = icmp eq i32 %34, 1
  br i1 %35, label %9, label %36, !llvm.loop !39

36:                                               ; preds = %extraTransferPermuteTime.exit
  ret ptr %.022.i
}